target datalayout = "e-m:e-p270:32:32-p271:32:32-p272:64:64-i64:64-i128:128-f80:128-n8:16:32:64-S128"
target triple = "x86_64-pc-linux-gnu"

%struct.AVRational = type { i32, i32 }
%struct.AVFormatContext = type { ptr, ptr, ptr, ptr, ptr, i32, i32, ptr, i32, ptr, i32, ptr, ptr, i64, i64, i64, i32, i32, i32, i64, i64, ptr, i32, i32, ptr, i32, i32, i32, i32, ptr, i64, i32, i32, %struct.AVIOInterruptCB, i32, i32, i32, i32, i64, i32, i32, i32, i32, i32, i32, i32, i32, i32, i32, i32, i32, i64, i32, i32, i32, i32, i32, ptr, ptr, ptr, ptr, i32, ptr, ptr, ptr, ptr, i32, ptr, ptr, i64, ptr, ptr, ptr, i64 }
%struct.AVIOInterruptCB = type { ptr, ptr }
%struct.SMUSHContext = type { i32, i32, i32 }
%struct.AVPacket = type { ptr, i64, i64, ptr, i32, i32, i32, ptr, i32, i64, i64, ptr, ptr, %struct.AVRational }

; Function Attrs: alwaysinline nounwind willreturn memory(none) uwtable
define internal i32 @av_bswap32(i32 noundef %0) #5 {
  %2 = alloca i32, align 4
  store i32 %0, ptr %2, align 4, !tbaa !35
  %3 = load i32, ptr %2, align 4, !tbaa !35
  %4 = shl i32 %3, 8
  %5 = and i32 %4, 65280
  %6 = load i32, ptr %2, align 4, !tbaa !35
  %7 = lshr i32 %6, 8
  %8 = and i32 %7, 255
  %9 = or i32 %5, %8
  %10 = shl i32 %9, 16
  %11 = load i32, ptr %2, align 4, !tbaa !35
  %12 = lshr i32 %11, 16
  %13 = shl i32 %12, 8
  %14 = and i32 %13, 65280
  %15 = load i32, ptr %2, align 4, !tbaa !35
  %16 = lshr i32 %15, 16
  %17 = lshr i32 %16, 8
  %18 = and i32 %17, 255
  %19 = or i32 %14, %18
  %20 = or i32 %10, %19
  ret i32 %20
}

; Function Attrs: nounwind uwtable
define internal i32 @smush_read_packet(ptr noundef %0, ptr noundef %1) #0 {
  %3 = alloca i32, align 4
  %4 = alloca ptr, align 8
  %5 = alloca ptr, align 8
  %6 = alloca ptr, align 8
  %7 = alloca ptr, align 8
  %8 = alloca i32, align 4
  %9 = alloca i32, align 4
  %10 = alloca i32, align 4
  %11 = alloca i32, align 4
  %12 = alloca i32, align 4
  store ptr %0, ptr %4, align 8, !tbaa !14
  store ptr %1, ptr %5, align 8, !tbaa !68
  call void @llvm.lifetime.start.p0(i64 8, ptr %6) #6
  %13 = load ptr, ptr %4, align 8, !tbaa !14
  %14 = getelementptr inbounds nuw %struct.AVFormatContext, ptr %13, i32 0, i32 3
  %15 = load ptr, ptr %14, align 8, !tbaa !16
  store ptr %15, ptr %6, align 8, !tbaa !31
  call void @llvm.lifetime.start.p0(i64 8, ptr %7) #6
  %16 = load ptr, ptr %4, align 8, !tbaa !14
  %17 = getelementptr inbounds nuw %struct.AVFormatContext, ptr %16, i32 0, i32 4
  %18 = load ptr, ptr %17, align 8, !tbaa !33
  store ptr %18, ptr %7, align 8, !tbaa !34
  call void @llvm.lifetime.start.p0(i64 4, ptr %8) #6
  store i32 0, ptr %8, align 4, !tbaa !35
  call void @llvm.lifetime.start.p0(i64 4, ptr %9) #6
  br label %19

19:                                               ; preds = %122, %2
  %20 = load i32, ptr %8, align 4, !tbaa !35
  %21 = icmp ne i32 %20, 0
  %22 = xor i1 %21, true
  br i1 %22, label %23, label %123

23:                                               ; preds = %19
  call void @llvm.lifetime.start.p0(i64 4, ptr %10) #6
  call void @llvm.lifetime.start.p0(i64 4, ptr %11) #6
  %24 = load ptr, ptr %7, align 8, !tbaa !34
  %25 = call i32 @avio_feof(ptr noundef %24)
  %26 = icmp ne i32 %25, 0
  br i1 %26, label %27, label %28

27:                                               ; preds = %23
  store i32 -541478725, ptr %3, align 4
  store i32 1, ptr %12, align 4
  br label %120

28:                                               ; preds = %23
  %29 = load ptr, ptr %7, align 8, !tbaa !34
  %30 = call i32 @avio_rb32(ptr noundef %29)
  store i32 %30, ptr %10, align 4, !tbaa !35
  %31 = load ptr, ptr %7, align 8, !tbaa !34
  %32 = call i32 @avio_rb32(ptr noundef %31)
  store i32 %32, ptr %11, align 4, !tbaa !35
  %33 = load i32, ptr %10, align 4, !tbaa !35
  switch i32 %33, label %114 [
    i32 1179798853, label %34
    i32 1114386742, label %54
    i32 1466005093, label %70
  ]

34:                                               ; preds = %28
  %35 = load ptr, ptr %6, align 8, !tbaa !31
  %36 = getelementptr inbounds nuw %struct.SMUSHContext, ptr %35, i32 0, i32 0
  %37 = load i32, ptr %36, align 4, !tbaa !36
  %38 = icmp ne i32 %37, 0
  br i1 %38, label %39, label %40

39:                                               ; preds = %34
  br label %119

40:                                               ; preds = %34
  %41 = load ptr, ptr %7, align 8, !tbaa !34
  %42 = load ptr, ptr %5, align 8, !tbaa !68
  %43 = load i32, ptr %11, align 4, !tbaa !35
  %44 = call i32 @av_get_packet(ptr noundef %41, ptr noundef %42, i32 noundef %43)
  store i32 %44, ptr %9, align 4, !tbaa !35
  %45 = icmp slt i32 %44, 0
  br i1 %45, label %46, label %48

46:                                               ; preds = %40
  %47 = load i32, ptr %9, align 4, !tbaa !35
  store i32 %47, ptr %3, align 4
  store i32 1, ptr %12, align 4
  br label %120

48:                                               ; preds = %40
  %49 = load ptr, ptr %6, align 8, !tbaa !31
  %50 = getelementptr inbounds nuw %struct.SMUSHContext, ptr %49, i32 0, i32 2
  %51 = load i32, ptr %50, align 4, !tbaa !50
  %52 = load ptr, ptr %5, align 8, !tbaa !68
  %53 = getelementptr inbounds nuw %struct.AVPacket, ptr %52, i32 0, i32 5
  store i32 %51, ptr %53, align 4, !tbaa !70
  store i32 1, ptr %8, align 4, !tbaa !35
  br label %119

54:                                               ; preds = %28
  %55 = load ptr, ptr %7, align 8, !tbaa !34
  %56 = load ptr, ptr %5, align 8, !tbaa !68
  %57 = load i32, ptr %11, align 4, !tbaa !35
  %58 = call i32 @av_get_packet(ptr noundef %55, ptr noundef %56, i32 noundef %57)
  store i32 %58, ptr %9, align 4, !tbaa !35
  %59 = icmp slt i32 %58, 0
  br i1 %59, label %60, label %62

60:                                               ; preds = %54
  %61 = load i32, ptr %9, align 4, !tbaa !35
  store i32 %61, ptr %3, align 4
  store i32 1, ptr %12, align 4
  br label %120

62:                                               ; preds = %54
  %63 = load ptr, ptr %6, align 8, !tbaa !31
  %64 = getelementptr inbounds nuw %struct.SMUSHContext, ptr %63, i32 0, i32 2
  %65 = load i32, ptr %64, align 4, !tbaa !50
  %66 = load ptr, ptr %5, align 8, !tbaa !68
  %67 = getelementptr inbounds nuw %struct.AVPacket, ptr %66, i32 0, i32 5
  store i32 %65, ptr %67, align 4, !tbaa !70
  %68 = load ptr, ptr %5, align 8, !tbaa !68
  %69 = getelementptr inbounds nuw %struct.AVPacket, ptr %68, i32 0, i32 9
  store i64 1, ptr %69, align 8, !tbaa !71
  store i32 1, ptr %8, align 4, !tbaa !35
  br label %119

70:                                               ; preds = %28
  %71 = load i32, ptr %11, align 4, !tbaa !35
  %72 = icmp ult i32 %71, 13
  br i1 %72, label %73, label %74

73:                                               ; preds = %70
  store i32 -1094995529, ptr %3, align 4
  store i32 1, ptr %12, align 4
  br label %120

74:                                               ; preds = %70
  %75 = load ptr, ptr %7, align 8, !tbaa !34
  %76 = load ptr, ptr %5, align 8, !tbaa !68
  %77 = load i32, ptr %11, align 4, !tbaa !35
  %78 = call i32 @av_get_packet(ptr noundef %75, ptr noundef %76, i32 noundef %77)
  %79 = icmp slt i32 %78, 13
  br i1 %79, label %80, label %81

80:                                               ; preds = %74
  store i32 -5, ptr %3, align 4
  store i32 1, ptr %12, align 4
  br label %120

81:                                               ; preds = %74
  %82 = load ptr, ptr %6, align 8, !tbaa !31
  %83 = getelementptr inbounds nuw %struct.SMUSHContext, ptr %82, i32 0, i32 1
  %84 = load i32, ptr %83, align 4, !tbaa !65
  %85 = load ptr, ptr %5, align 8, !tbaa !68
  %86 = getelementptr inbounds nuw %struct.AVPacket, ptr %85, i32 0, i32 5
  store i32 %84, ptr %86, align 4, !tbaa !70
  %87 = load ptr, ptr %5, align 8, !tbaa !68
  %88 = getelementptr inbounds nuw %struct.AVPacket, ptr %87, i32 0, i32 6
  %89 = load i32, ptr %88, align 8, !tbaa !72
  %90 = or i32 %89, 1
  store i32 %90, ptr %88, align 8, !tbaa !72
  %91 = load ptr, ptr %5, align 8, !tbaa !68
  %92 = getelementptr inbounds nuw %struct.AVPacket, ptr %91, i32 0, i32 3
  %93 = load ptr, ptr %92, align 8, !tbaa !73
  %94 = load i32, ptr %93, align 1, !tbaa !13
  %95 = call i32 @av_bswap32(i32 noundef %94) #7
  %96 = zext i32 %95 to i64
  %97 = load ptr, ptr %5, align 8, !tbaa !68
  %98 = getelementptr inbounds nuw %struct.AVPacket, ptr %97, i32 0, i32 9
  store i64 %96, ptr %98, align 8, !tbaa !71
  %99 = load ptr, ptr %5, align 8, !tbaa !68
  %100 = getelementptr inbounds nuw %struct.AVPacket, ptr %99, i32 0, i32 9
  %101 = load i64, ptr %100, align 8, !tbaa !71
  %102 = icmp eq i64 %101, 4294967295
  br i1 %102, label %103, label %113

103:                                              ; preds = %81
  %104 = load ptr, ptr %5, align 8, !tbaa !68
  %105 = getelementptr inbounds nuw %struct.AVPacket, ptr %104, i32 0, i32 3
  %106 = load ptr, ptr %105, align 8, !tbaa !73
  %107 = getelementptr inbounds i8, ptr %106, i64 8
  %108 = load i32, ptr %107, align 1, !tbaa !13
  %109 = call i32 @av_bswap32(i32 noundef %108) #7
  %110 = zext i32 %109 to i64
  %111 = load ptr, ptr %5, align 8, !tbaa !68
  %112 = getelementptr inbounds nuw %struct.AVPacket, ptr %111, i32 0, i32 9
  store i64 %110, ptr %112, align 8, !tbaa !71
  br label %113

113:                                              ; preds = %103, %81
  store i32 1, ptr %8, align 4, !tbaa !35
  br label %119

114:                                              ; preds = %28
  %115 = load ptr, ptr %7, align 8, !tbaa !34
  %116 = load i32, ptr %11, align 4, !tbaa !35
  %117 = zext i32 %116 to i64
  %118 = call i64 @avio_skip(ptr noundef %115, i64 noundef %117)
  br label %119

119:                                              ; preds = %114, %113, %62, %48, %39
  store i32 0, ptr %12, align 4
  br label %120

120:                                              ; preds = %119, %80, %73, %60, %46, %27
  call void @llvm.lifetime.end.p0(i64 4, ptr %11) #6
  call void @llvm.lifetime.end.p0(i64 4, ptr %10) #6
  %121 = load i32, ptr %12, align 4
  switch i32 %121, label %124 [
    i32 0, label %122
  ]

122:                                              ; preds = %120
  br label %19, !llvm.loop !74

123:                                              ; preds = %19
  store i32 0, ptr %3, align 4
  store i32 1, ptr %12, align 4
  br label %124

124:                                              ; preds = %123, %120
  call void @llvm.lifetime.end.p0(i64 4, ptr %9) #6
  call void @llvm.lifetime.end.p0(i64 4, ptr %8) #6
  call void @llvm.lifetime.end.p0(i64 8, ptr %7) #6
  call void @llvm.lifetime.end.p0(i64 8, ptr %6) #6
  %125 = load i32, ptr %3, align 4
  ret i32 %125
}