; Function Attrs: nounwind uwtable
define internal range(i32 -2147483648, 1) i32 @smush_read_packet(ptr noundef readonly captures(none) %0, ptr noundef %1) #1 {
  %3 = getelementptr inbounds nuw i8, ptr %0, i64 24
  %4 = load ptr, ptr %3, align 8, !tbaa !12
  %5 = getelementptr inbounds nuw i8, ptr %0, i64 32
  %6 = load ptr, ptr %5, align 8, !tbaa !27
  %7 = getelementptr inbounds nuw i8, ptr %4, i64 4
  %8 = getelementptr inbounds nuw i8, ptr %1, i64 36
  %9 = getelementptr inbounds nuw i8, ptr %1, i64 40
  %10 = getelementptr inbounds nuw i8, ptr %1, i64 24
  %11 = getelementptr inbounds nuw i8, ptr %1, i64 64
  %12 = getelementptr inbounds nuw i8, ptr %4, i64 8
  %13 = tail call i32 @avio_feof(ptr noundef %6) #5
  %.not4354 = icmp eq i32 %13, 0
  br i1 %.not4354, label %.lr.ph, label %.thread

.lr.ph:                                           ; preds = %2, %50
  %14 = tail call i32 @avio_rb32(ptr noundef %6) #5
  %15 = tail call i32 @avio_rb32(ptr noundef %6) #5
  switch i32 %14, label %47 [
    i32 1179798853, label %16
    i32 1114386742, label %23
    i32 1466005093, label %28
  ]

16:                                               ; preds = %.lr.ph
  %17 = load i32, ptr %4, align 4, !tbaa !28
  %.not44 = icmp eq i32 %17, 0
  br i1 %.not44, label %18, label %50

18:                                               ; preds = %16
  %19 = tail call i32 @av_get_packet(ptr noundef %6, ptr noundef %1, i32 noundef %15) #5
  %20 = icmp slt i32 %19, 0
  br i1 %20, label %.thread, label %21

21:                                               ; preds = %18
  %22 = load i32, ptr %12, align 4, !tbaa !41
  store i32 %22, ptr %8, align 4, !tbaa !58
  br label %.thread

23:                                               ; preds = %.lr.ph
  %24 = tail call i32 @av_get_packet(ptr noundef %6, ptr noundef %1, i32 noundef %15) #5
  %25 = icmp slt i32 %24, 0
  br i1 %25, label %.thread, label %26

26:                                               ; preds = %23
  %27 = load i32, ptr %12, align 4, !tbaa !41
  store i32 %27, ptr %8, align 4, !tbaa !58
  store i64 1, ptr %11, align 8, !tbaa !59
  br label %.thread

28:                                               ; preds = %.lr.ph
  %29 = icmp ult i32 %15, 13
  br i1 %29, label %.thread, label %30

30:                                               ; preds = %28
  %31 = tail call i32 @av_get_packet(ptr noundef %6, ptr noundef %1, i32 noundef %15) #5
  %32 = icmp slt i32 %31, 13
  br i1 %32, label %.thread, label %33

33:                                               ; preds = %30
  %34 = load i32, ptr %7, align 4, !tbaa !55
  store i32 %34, ptr %8, align 4, !tbaa !58
  %35 = load i32, ptr %9, align 8, !tbaa !60
  %36 = or i32 %35, 1
  store i32 %36, ptr %9, align 8, !tbaa !60
  %37 = load ptr, ptr %10, align 8, !tbaa !61
  %38 = load i32, ptr %37, align 1, !tbaa !11
  %39 = tail call i32 @llvm.bswap.i32(i32 %38)
  %40 = zext i32 %39 to i64
  store i64 %40, ptr %11, align 8, !tbaa !59
  %41 = icmp eq i32 %38, -1
  br i1 %41, label %42, label %.thread

42:                                               ; preds = %33
  %43 = getelementptr inbounds nuw i8, ptr %37, i64 8
  %44 = load i32, ptr %43, align 1, !tbaa !11
  %45 = tail call i32 @llvm.bswap.i32(i32 %44)
  %46 = zext i32 %45 to i64
  store i64 %46, ptr %11, align 8, !tbaa !59
  br label %.thread

47:                                               ; preds = %.lr.ph
  %48 = zext i32 %15 to i64
  %49 = tail call i64 @avio_skip(ptr noundef %6, i64 noundef %48) #5
  br label %50

50:                                               ; preds = %47, %16
  %51 = tail call i32 @avio_feof(ptr noundef %6) #5
  %.not43 = icmp eq i32 %51, 0
  br i1 %.not43, label %.lr.ph, label %.thread, !llvm.loop !62

.thread:                                          ; preds = %50, %2, %33, %42, %21, %26, %30, %28, %23, %18
  %.2 = phi i32 [ -5, %30 ], [ -1094995529, %28 ], [ %24, %23 ], [ %19, %18 ], [ 0, %26 ], [ 0, %21 ], [ 0, %42 ], [ 0, %33 ], [ -541478725, %2 ], [ -541478725, %50 ]
  ret i32 %.2
}